target datalayout = "e-m:e-p270:32:32-p271:32:32-p272:64:64-i64:64-i128:128-f80:128-n8:16:32:64-S128"
target triple = "x86_64-pc-linux-gnu"

%struct.HWContextType = type { i32, ptr, ptr, i64, i64, i64, ptr, ptr, ptr, ptr, ptr, ptr, ptr, ptr, ptr, ptr, ptr, ptr, ptr, ptr, ptr }
%struct.FFHWDeviceContext = type { %struct.AVHWDeviceContext, ptr, ptr }
%struct.AVHWDeviceContext = type { ptr, i32, ptr, ptr, ptr }
%struct.AVBufferRef = type { ptr, ptr, i64 }
%struct.AVHWFramesConstraints = type { ptr, ptr, i32, i32, i32, i32 }

; Function Attrs: nounwind uwtable
define void @av_hwframe_constraints_free(ptr noundef %0) #0 {
  %2 = alloca ptr, align 8
  store ptr %0, ptr %2, align 8, !tbaa !110
  %3 = load ptr, ptr %2, align 8, !tbaa !110
  %4 = load ptr, ptr %3, align 8, !tbaa !103
  %5 = icmp ne ptr %4, null
  br i1 %5, label %6, label %13

6:                                                ; preds = %1
  %7 = load ptr, ptr %2, align 8, !tbaa !110
  %8 = load ptr, ptr %7, align 8, !tbaa !103
  %9 = getelementptr inbounds nuw %struct.AVHWFramesConstraints, ptr %8, i32 0, i32 0
  call void @av_freep(ptr noundef %9)
  %10 = load ptr, ptr %2, align 8, !tbaa !110
  %11 = load ptr, ptr %10, align 8, !tbaa !103
  %12 = getelementptr inbounds nuw %struct.AVHWFramesConstraints, ptr %11, i32 0, i32 1
  call void @av_freep(ptr noundef %12)
  br label %13

13:                                               ; preds = %6, %1
  %14 = load ptr, ptr %2, align 8, !tbaa !110
  call void @av_freep(ptr noundef %14)
  ret void
}

; Function Attrs: nounwind uwtable
define ptr @av_hwdevice_get_hwframe_constraints(ptr noundef %0, ptr noundef %1) #0 {
  %3 = alloca ptr, align 8
  %4 = alloca ptr, align 8
  %5 = alloca ptr, align 8
  %6 = alloca ptr, align 8
  %7 = alloca ptr, align 8
  %8 = alloca ptr, align 8
  %9 = alloca i32, align 4
  store ptr %0, ptr %4, align 8, !tbaa !28
  store ptr %1, ptr %5, align 8, !tbaa !34
  call void @llvm.lifetime.start.p0(i64 8, ptr %6) #5
  %10 = load ptr, ptr %4, align 8, !tbaa !28
  %11 = getelementptr inbounds nuw %struct.AVBufferRef, ptr %10, i32 0, i32 1
  %12 = load ptr, ptr %11, align 8, !tbaa !37
  store ptr %12, ptr %6, align 8, !tbaa !20
  call void @llvm.lifetime.start.p0(i64 8, ptr %7) #5
  %13 = load ptr, ptr %6, align 8, !tbaa !20
  %14 = getelementptr inbounds nuw %struct.FFHWDeviceContext, ptr %13, i32 0, i32 1
  %15 = load ptr, ptr %14, align 8, !tbaa !32
  store ptr %15, ptr %7, align 8, !tbaa !13
  call void @llvm.lifetime.start.p0(i64 8, ptr %8) #5
  %16 = load ptr, ptr %7, align 8, !tbaa !13
  %17 = getelementptr inbounds nuw %struct.HWContextType, ptr %16, i32 0, i32 10
  %18 = load ptr, ptr %17, align 8, !tbaa !102
  %19 = icmp ne ptr %18, null
  br i1 %19, label %21, label %20

20:                                               ; preds = %2
  store ptr null, ptr %3, align 8
  store i32 1, ptr %9, align 4
  br label %47

21:                                               ; preds = %2
  %22 = call noalias ptr @av_mallocz(i64 noundef 32)
  store ptr %22, ptr %8, align 8, !tbaa !103
  %23 = load ptr, ptr %8, align 8, !tbaa !103
  %24 = icmp ne ptr %23, null
  br i1 %24, label %26, label %25

25:                                               ; preds = %21
  store ptr null, ptr %3, align 8
  store i32 1, ptr %9, align 4
  br label %47

26:                                               ; preds = %21
  %27 = load ptr, ptr %8, align 8, !tbaa !103
  %28 = getelementptr inbounds nuw %struct.AVHWFramesConstraints, ptr %27, i32 0, i32 3
  store i32 0, ptr %28, align 4, !tbaa !105
  %29 = load ptr, ptr %8, align 8, !tbaa !103
  %30 = getelementptr inbounds nuw %struct.AVHWFramesConstraints, ptr %29, i32 0, i32 2
  store i32 0, ptr %30, align 8, !tbaa !107
  %31 = load ptr, ptr %8, align 8, !tbaa !103
  %32 = getelementptr inbounds nuw %struct.AVHWFramesConstraints, ptr %31, i32 0, i32 5
  store i32 2147483647, ptr %32, align 4, !tbaa !108
  %33 = load ptr, ptr %8, align 8, !tbaa !103
  %34 = getelementptr inbounds nuw %struct.AVHWFramesConstraints, ptr %33, i32 0, i32 4
  store i32 2147483647, ptr %34, align 8, !tbaa !109
  %35 = load ptr, ptr %7, align 8, !tbaa !13
  %36 = getelementptr inbounds nuw %struct.HWContextType, ptr %35, i32 0, i32 10
  %37 = load ptr, ptr %36, align 8, !tbaa !102
  %38 = load ptr, ptr %6, align 8, !tbaa !20
  %39 = getelementptr inbounds nuw %struct.FFHWDeviceContext, ptr %38, i32 0, i32 0
  %40 = load ptr, ptr %5, align 8, !tbaa !34
  %41 = load ptr, ptr %8, align 8, !tbaa !103
  %42 = call i32 %37(ptr noundef %39, ptr noundef %40, ptr noundef %41)
  %43 = icmp sge i32 %42, 0
  br i1 %43, label %44, label %46

44:                                               ; preds = %26
  %45 = load ptr, ptr %8, align 8, !tbaa !103
  store ptr %45, ptr %3, align 8
  store i32 1, ptr %9, align 4
  br label %47

46:                                               ; preds = %26
  call void @av_hwframe_constraints_free(ptr noundef %8)
  store ptr null, ptr %3, align 8
  store i32 1, ptr %9, align 4
  br label %47

47:                                               ; preds = %46, %44, %25, %20
  call void @llvm.lifetime.end.p0(i64 8, ptr %8) #5
  call void @llvm.lifetime.end.p0(i64 8, ptr %7) #5
  call void @llvm.lifetime.end.p0(i64 8, ptr %6) #5
  %48 = load ptr, ptr %3, align 8
  ret ptr %48
}