; Function Attrs: nounwind uwtable
define ptr @av_hwdevice_get_hwframe_constraints(ptr noundef readonly captures(none) %0, ptr noundef %1) local_unnamed_addr #5 {
  %3 = alloca ptr, align 8
  %4 = getelementptr inbounds nuw i8, ptr %0, i64 8
  %5 = load ptr, ptr %4, align 8, !tbaa !32
  %6 = getelementptr inbounds nuw i8, ptr %5, i64 40
  %7 = load ptr, ptr %6, align 8, !tbaa !27
  call void @llvm.lifetime.start.p0(i64 8, ptr nonnull %3) #11
  %8 = getelementptr inbounds nuw i8, ptr %7, i64 80
  %9 = load ptr, ptr %8, align 8, !tbaa !95
  %.not = icmp eq ptr %9, null
  br i1 %.not, label %21, label %10

10:                                               ; preds = %2
  %11 = tail call noalias ptr @av_mallocz(i64 noundef 32) #11
  store ptr %11, ptr %3, align 8, !tbaa !96
  %.not8 = icmp eq ptr %11, null
  br i1 %.not8, label %21, label %12

12:                                               ; preds = %10
  %13 = getelementptr inbounds nuw i8, ptr %11, i64 20
  store i32 0, ptr %13, align 4, !tbaa !98
  %14 = getelementptr inbounds nuw i8, ptr %11, i64 16
  store i32 0, ptr %14, align 8, !tbaa !100
  %15 = getelementptr inbounds nuw i8, ptr %11, i64 28
  store i32 2147483647, ptr %15, align 4, !tbaa !101
  %16 = getelementptr inbounds nuw i8, ptr %11, i64 24
  store i32 2147483647, ptr %16, align 8, !tbaa !102
  %17 = load ptr, ptr %8, align 8, !tbaa !95
  %18 = tail call i32 %17(ptr noundef nonnull %5, ptr noundef %1, ptr noundef nonnull %11) #11
  %19 = icmp sgt i32 %18, -1
  br i1 %19, label %21, label %av_hwframe_constraints_free.exit

av_hwframe_constraints_free.exit:                 ; preds = %12
  tail call void @av_freep(ptr noundef nonnull %11) #11
  %20 = getelementptr inbounds nuw i8, ptr %11, i64 8
  tail call void @av_freep(ptr noundef nonnull %20) #11
  call void @av_freep(ptr noundef nonnull %3) #11
  br label %21

21:                                               ; preds = %12, %10, %2, %av_hwframe_constraints_free.exit
  %.0 = phi ptr [ null, %av_hwframe_constraints_free.exit ], [ null, %2 ], [ null, %10 ], [ %11, %12 ]
  call void @llvm.lifetime.end.p0(i64 8, ptr nonnull %3) #11
  ret ptr %.0
}